(lp0
(dp1
Vq1
p2
(dp3
g2
F0.7864753193792307
sVq3
p4
F0.21352468049354445
sVq2
p5
F1.2722427786207965e-10
ssg4
(dp6
g2
F0.4509223002730791
sg4
F6.66422622122065e-06
sg5
F0.5490710355006991
ssg5
(dp7
g2
F0.4308061132445352
sg4
F3.941178633019993e-05
sg5
F0.5691544749691347
ssa(dp8
g2
(dp9
V11
p10
F0.011544410130858053
sV10
p11
F0.014886753545263946
sV13
p12
F0.10098031735052934
sV12
p13
F0.011544410133525812
sV15
p14
F0.005573821332975005
sV14
p15
F0.19844541440782262
sV1
p16
F0.03518225953047193
sV0
p17
F2.0235460480788207e-05
sV3
p18
F0.07728212225890055
sV2
p19
F0.12723606553871822
sV5
p20
F0.056426022916162784
sV4
p21
F0.011720445031206197
sV7
p22
F0.058391511582248624
sV6
p23
F0.26416628068377457
sV9
p24
F0.002094965332028832
sV8
p25
F0.024504964765031938
ssg4
(dp26
g10
F1.649330946619908e-25
sg11
F0.05192622760005139
sg12
F7.054227300625682e-09
sg13
F1.1687450374342347e-12
sg14
F0.027960445573214966
sg15
F0.05732061566868238
sg16
F6.296687605626607e-15
sg17
F0.03258134348521473
sg18
F0.1828642702868941
sg19
F0.12048203572940225
sg20
F6.6988827418928905e-09
sg21
F2.9733135202132224e-10
sg22
F8.808402782568013e-05
sg23
F0.10095614929690343
sg24
F7.924948134722404e-07
sg25
F0.4258200217853805
ssg5
(dp27
g10
F1.0581861904698153e-11
sg11
F6.192996051484206e-13
sg12
F0.09433787865964133
sg13
F2.2095825144937364e-30
sg14
F8.824269067832568e-46
sg15
F6.449147812831258e-17
sg16
F0.15503720982712452
sg17
F0.06890794895347924
sg18
F0.18521957148372584
sg19
F3.2833808302829956e-20
sg20
F0.015169572540980602
sg21
F0.1459215701696847
sg22
F0.2592179288571076
sg23
F1.3431593079073116e-13
sg24
F0.07614907365298222
sg25
F3.9245843938554675e-05
ssa(dp28
g2
F1.421698191181271e-83
sg4
F0.0
sg5
F1.0
sa.