(lp0
(dp1
Vq1
p2
(dp3
g2
F0.8555865933205415
sVq3
p4
F0.14441334075294457
sVq2
p5
F6.592651457964536e-08
ssg4
(dp6
g2
F0.30072596008646985
sg4
F0.27020319593301523
sg5
F0.42907084398051604
ssg5
(dp7
g2
F0.8789439497090982
sg4
F0.00033913206874415665
sg5
F0.1207169182221576
ssa(dp8
g2
(dp9
V11
p10
F0.05980721484747123
sV10
p11
I0
sV13
p12
F0.02820025777601632
sV12
p13
F0.03827682993156885
sV15
p14
F0.04545208698752411
sV14
p15
I0
sV1
p16
F0.05502294298852288
sV0
p17
F0.07498800435822481
sV3
p18
F0.042156488852248326
sV2
p19
F1.8344142563758374e-06
sV5
p20
F0.01149205666158039
sV4
p21
F0.01435381120900904
sV7
p22
F0.032706106066523126
sV6
p23
F0.10938293375758525
sV9
p24
F0.48231105835224714
sV8
p25
F0.0058483737972226755
ssg4
(dp26
g10
F1.6618318217569519e-06
sg11
I0
sg12
F0.08726095890888957
sg13
F2.579505015699556e-10
sg14
F8.414449942631765e-06
sg15
I0
sg16
F5.794809017992038e-10
sg17
F0.142294449823773
sg18
F0.04125185574967815
sg19
F3.5539809861007326e-06
sg20
F0.09553304221927456
sg21
F7.576596313585326e-13
sg22
F0.05285669241354325
sg23
F0.1987511171873748
sg24
F0.18457957674059564
sg25
F0.1974586758559331
ssg5
(dp27
g10
F6.537365310544485e-08
sg11
I0
sg12
F0.0016059235028144498
sg13
F1.963465972200603e-11
sg14
F1.1806144353225176e-09
sg15
I0
sg16
F1.3305094115713204e-17
sg17
F3.666198926273294e-05
sg18
F6.548050355012439e-07
sg19
F0.5109313107312411
sg20
F0.2037192439631071
sg21
F3.545062239468003e-10
sg22
F1.3542860804527873e-15
sg23
F1.8310684136979634e-05
sg24
F0.031011978462231197
sg25
F0.2526758489337615
ssa(dp28
g2
F4.361042336235182e-199
sg4
F7.03218283661173e-129
sg5
F1.0
sa.