(lp0
(dp1
Vq1
p2
(dp3
g2
F0.7963658769849723
sVq3
p4
F0.2029016234474304
sVq2
p5
F0.0007324995675980134
ssg4
(dp6
g2
F0.5320761507481393
sg4
F0.0005463389765719224
sg5
F0.4673775102752887
ssg5
(dp7
g2
F0.9999702648579143
sg4
F2.9735142085477318e-05
sg5
F7.633094391751488e-18
ssa(dp8
g2
(dp9
V11
p10
F0.013372466043910706
sV10
p11
F0.10705253838905529
sV13
p12
F0.007145051608429426
sV12
p13
F0.21228712108536207
sV15
p14
I0
sV14
p15
I0
sV1
p16
F0.08517355156720907
sV0
p17
F0.05592246885219712
sV3
p18
F0.07778567920011757
sV2
p19
F0.05022311360780249
sV5
p20
F1.8700606457058245e-06
sV4
p21
F0.008948941581599076
sV7
p22
F0.22313600653153418
sV6
p23
F0.04595304083688572
sV9
p24
F0.11299815063525165
sV8
p25
I0
ssg4
(dp26
g10
F0.21618135539049751
sg11
F0.03565300491729801
sg12
F8.20086932193933e-23
sg13
F0.28188554190744347
sg14
I0
sg15
I0
sg16
F0.0026126639196870356
sg17
F0.05247658504538945
sg18
F5.257325581730822e-06
sg19
F0.1013034123237795
sg20
F0.06047069661416351
sg21
F1.624876749570342e-46
sg22
F0.08717426078864382
sg23
F0.014835516569201625
sg24
F0.14740170519831425
sg25
I0
ssg5
(dp27
g10
F2.1171219921348973e-25
sg11
F3.360206777652133e-11
sg12
F0.13336745084069676
sg13
F1.4807532084746992e-06
sg14
I0
sg15
I0
sg16
F1.1611545832421016e-19
sg17
F0.767317477620918
sg18
F0.0385674059212279
sg19
F0.027445836874202167
sg20
F9.417606633663668e-14
sg21
F0.03313257958388594
sg22
F8.620060615751139e-10
sg23
F0.00016664150211445232
sg24
F1.126008044070196e-06
sg25
I0
ssa(dp28
g2
F8.563523382702506e-70
sg4
F4.751371105013887e-42
sg5
F1.0
sa.