(lp0
(dp1
Vq1
p2
(dp3
g2
F0.6776222075003321
sVq3
p4
F0.3223777924996676
sVq2
p5
F7.921433679030963e-16
ssg4
(dp6
g2
F0.3348277759403831
sg4
F1.344653464428614e-14
sg5
F0.6651722240596035
ssg5
(dp7
g2
F1.0
sg4
F5.987616292098406e-18
sg5
F1.1199796595108454e-38
ssa(dp8
g2
(dp9
V11
p10
F1.2536018548450398e-72
sV10
p11
F6.627982499858049e-14
sV13
p12
F3.0898734307361994e-05
sV12
p13
F0.02860697129249419
sV15
p14
I0
sV14
p15
F0.07684072728620525
sV1
p16
F0.07683808810164817
sV0
p17
F0.055567609464826404
sV3
p18
F8.398029258381456e-09
sV2
p19
F0.058192083758148466
sV5
p20
F0.07684072728614846
sV4
p21
F0.09162165143474775
sV7
p22
F0.4842340827192418
sV6
p23
F0.05122715152413685
sV9
p24
F1.2000917641144657e-16
sV8
p25
F1.19915907066409e-23
ssg4
(dp26
g10
F3.759749641973557e-251
sg11
F5.610250416032684e-08
sg12
F0.19853427301735996
sg13
F3.4675561690411614e-30
sg14
I0
sg15
F1.430849279620909e-17
sg16
F8.186620227894845e-06
sg17
F9.4948769759357e-38
sg18
F0.35753418880860405
sg19
F0.05784717174051551
sg20
F1.761977532081386e-13
sg21
F3.5358531526687806e-05
sg22
F0.18871774319950158
sg23
F5.093966609946001e-36
sg24
F0.039726023873208095
sg25
F0.15759699810637615
ssg5
(dp27
g10
F0.1690713120214544
sg11
F0.33814254445310993
sg12
F4.1033130559122385e-53
sg13
F0.09954157606241609
sg14
I0
sg15
F6.582506e-318
sg16
F3.072896953072615e-44
sg17
F0.037256636202545795
sg18
F1.3526471680760379e-44
sg19
F1.8285783918929114e-192
sg20
F2.974740639858257e-32
sg21
F0.2166909396489081
sg22
F0.08108558112785413
sg23
F7.448854340124141e-37
sg24
F1.6126716321229078e-205
sg25
F0.05821141048371158
ssa(dp28
g2
F0.0
sg4
F0.0
sg5
F1.0
sa.